target datalayout = "e-m:e-p270:32:32-p271:32:32-p272:64:64-i64:64-i128:128-f80:128-n8:16:32:64-S128"
target triple = "x86_64-pc-linux-gnu"

%struct.DdManager = type { %struct.DdNode, ptr, ptr, ptr, ptr, ptr, ptr, ptr, i32, i32, double, double, double, i32, i32, i32, i32, i32, i32, ptr, ptr, %struct.DdSubtable, i32, i32, i32, i32, i32, i32, i32, double, i32, i32, i32, ptr, i64, double, i32, ptr, ptr, ptr, ptr, ptr, ptr, ptr, i32, ptr, ptr, ptr, ptr, ptr, ptr, i32, i32, i32, double, i32, i32, i32, i32, double, double, i32, i32, i32, i32, i32, i32, i32, i32, i32, ptr, ptr, i32, i32, i32, i32, i32, i32, ptr, ptr, ptr, ptr, ptr, ptr, ptr, ptr, i32, i64, i64, i64, i32, i64, i64, double, double, double, double, double, double, i32, ptr, ptr, i64 }
%struct.DdNode = type { i32, i32, ptr, %union.anon, i64 }
%union.anon = type { %struct.DdChildren }
%struct.DdChildren = type { ptr, ptr }
%struct.DdSubtable = type { ptr, i32, i32, i32, i32, i32, i32, i32, i32, i32, i32, i32 }
%struct.Extra_UnateInfo_t_ = type { i32, i32, i32, ptr }
%struct.Extra_UnateVar_t_ = type { i32 }

; Function Attrs: nounwind uwtable
define ptr @Extra_UnateInfoAllocate(i32 noundef %0) #0 {
  %2 = alloca i32, align 4
  %3 = alloca ptr, align 8
  store i32 %0, ptr %2, align 4, !tbaa !31
  call void @llvm.lifetime.start.p0(i64 8, ptr %3) #6
  %4 = call noalias ptr @malloc(i64 noundef 24) #7
  store ptr %4, ptr %3, align 8, !tbaa !10
  %5 = load ptr, ptr %3, align 8, !tbaa !10
  call void @llvm.memset.p0.i64(ptr align 8 %5, i8 0, i64 24, i1 false)
  %6 = load i32, ptr %2, align 4, !tbaa !31
  %7 = load ptr, ptr %3, align 8, !tbaa !10
  %8 = getelementptr inbounds nuw %struct.Extra_UnateInfo_t_, ptr %7, i32 0, i32 0
  store i32 %6, ptr %8, align 8, !tbaa !50
  %9 = load i32, ptr %2, align 4, !tbaa !31
  %10 = sext i32 %9 to i64
  %11 = mul i64 4, %10
  %12 = call noalias ptr @malloc(i64 noundef %11) #7
  %13 = load ptr, ptr %3, align 8, !tbaa !10
  %14 = getelementptr inbounds nuw %struct.Extra_UnateInfo_t_, ptr %13, i32 0, i32 3
  store ptr %12, ptr %14, align 8, !tbaa !39
  %15 = load ptr, ptr %3, align 8, !tbaa !10
  %16 = getelementptr inbounds nuw %struct.Extra_UnateInfo_t_, ptr %15, i32 0, i32 3
  %17 = load ptr, ptr %16, align 8, !tbaa !39
  %18 = load i32, ptr %2, align 4, !tbaa !31
  %19 = sext i32 %18 to i64
  %20 = mul i64 %19, 4
  call void @llvm.memset.p0.i64(ptr align 4 %17, i8 0, i64 %20, i1 false)
  %21 = load ptr, ptr %3, align 8, !tbaa !10
  call void @llvm.lifetime.end.p0(i64 8, ptr %3) #6
  ret ptr %21
}

; Function Attrs: nounwind uwtable
define ptr @Extra_UnateInfoCreateFromZdd(ptr noundef %0, ptr noundef %1, ptr noundef %2) #0 {
  %4 = alloca ptr, align 8
  %5 = alloca ptr, align 8
  %6 = alloca ptr, align 8
  %7 = alloca ptr, align 8
  %8 = alloca ptr, align 8
  %9 = alloca ptr, align 8
  %10 = alloca ptr, align 8
  %11 = alloca ptr, align 8
  %12 = alloca ptr, align 8
  %13 = alloca i32, align 4
  %14 = alloca i32, align 4
  store ptr %0, ptr %4, align 8, !tbaa !3
  store ptr %1, ptr %5, align 8, !tbaa !8
  store ptr %2, ptr %6, align 8, !tbaa !8
  call void @llvm.lifetime.start.p0(i64 8, ptr %7) #6
  call void @llvm.lifetime.start.p0(i64 8, ptr %8) #6
  call void @llvm.lifetime.start.p0(i64 8, ptr %9) #6
  call void @llvm.lifetime.start.p0(i64 8, ptr %10) #6
  call void @llvm.lifetime.start.p0(i64 8, ptr %11) #6
  call void @llvm.lifetime.start.p0(i64 8, ptr %12) #6
  call void @llvm.lifetime.start.p0(i64 4, ptr %13) #6
  call void @llvm.lifetime.start.p0(i64 4, ptr %14) #6
  %15 = load ptr, ptr %4, align 8, !tbaa !3
  %16 = load ptr, ptr %6, align 8, !tbaa !8
  %17 = call i32 @Extra_bddSuppSize(ptr noundef %15, ptr noundef %16)
  store i32 %17, ptr %14, align 4, !tbaa !31
  %18 = load i32, ptr %14, align 4, !tbaa !31
  %19 = call ptr @Extra_UnateInfoAllocate(i32 noundef %18)
  store ptr %19, ptr %7, align 8, !tbaa !10
  %20 = load ptr, ptr %4, align 8, !tbaa !3
  %21 = getelementptr inbounds nuw %struct.DdManager, ptr %20, i32 0, i32 15
  %22 = load i32, ptr %21, align 8, !tbaa !32
  %23 = sext i32 %22 to i64
  %24 = mul i64 4, %23
  %25 = call noalias ptr @malloc(i64 noundef %24) #7
  store ptr %25, ptr %12, align 8, !tbaa !33
  %26 = load ptr, ptr %12, align 8, !tbaa !33
  %27 = load ptr, ptr %4, align 8, !tbaa !3
  %28 = getelementptr inbounds nuw %struct.DdManager, ptr %27, i32 0, i32 15
  %29 = load i32, ptr %28, align 8, !tbaa !32
  %30 = sext i32 %29 to i64
  %31 = mul i64 %30, 4
  call void @llvm.memset.p0.i64(ptr align 4 %26, i8 0, i64 %31, i1 false)
  %32 = load ptr, ptr %4, align 8, !tbaa !3
  %33 = getelementptr inbounds nuw %struct.DdManager, ptr %32, i32 0, i32 15
  %34 = load i32, ptr %33, align 8, !tbaa !32
  %35 = load ptr, ptr %7, align 8, !tbaa !10
  %36 = getelementptr inbounds nuw %struct.Extra_UnateInfo_t_, ptr %35, i32 0, i32 1
  store i32 %34, ptr %36, align 4, !tbaa !34
  store i32 0, ptr %13, align 4, !tbaa !31
  %37 = load ptr, ptr %6, align 8, !tbaa !8
  store ptr %37, ptr %8, align 8, !tbaa !8
  br label %38

38:                                               ; preds = %65, %3
  %39 = load ptr, ptr %8, align 8, !tbaa !8
  %40 = load ptr, ptr %4, align 8, !tbaa !3
  %41 = getelementptr inbounds nuw %struct.DdManager, ptr %40, i32 0, i32 1
  %42 = load ptr, ptr %41, align 8, !tbaa !37
  %43 = icmp ne ptr %39, %42
  br i1 %43, label %44, label %72

44:                                               ; preds = %38
  %45 = load ptr, ptr %8, align 8, !tbaa !8
  %46 = getelementptr inbounds nuw %struct.DdNode, ptr %45, i32 0, i32 0
  %47 = load i32, ptr %46, align 8, !tbaa !38
  %48 = load ptr, ptr %7, align 8, !tbaa !10
  %49 = getelementptr inbounds nuw %struct.Extra_UnateInfo_t_, ptr %48, i32 0, i32 3
  %50 = load ptr, ptr %49, align 8, !tbaa !39
  %51 = load i32, ptr %13, align 4, !tbaa !31
  %52 = sext i32 %51 to i64
  %53 = getelementptr inbounds %struct.Extra_UnateVar_t_, ptr %50, i64 %52
  %54 = load i32, ptr %53, align 4
  %55 = and i32 %47, 1073741823
  %56 = and i32 %54, -1073741824
  %57 = or i32 %56, %55
  store i32 %57, ptr %53, align 4
  %58 = load i32, ptr %13, align 4, !tbaa !31
  %59 = load ptr, ptr %12, align 8, !tbaa !33
  %60 = load ptr, ptr %8, align 8, !tbaa !8
  %61 = getelementptr inbounds nuw %struct.DdNode, ptr %60, i32 0, i32 0
  %62 = load i32, ptr %61, align 8, !tbaa !38
  %63 = zext i32 %62 to i64
  %64 = getelementptr inbounds nuw i32, ptr %59, i64 %63
  store i32 %58, ptr %64, align 4, !tbaa !31
  br label %65

65:                                               ; preds = %44
  %66 = load ptr, ptr %8, align 8, !tbaa !8
  %67 = getelementptr inbounds nuw %struct.DdNode, ptr %66, i32 0, i32 3
  %68 = getelementptr inbounds nuw %struct.DdChildren, ptr %67, i32 0, i32 0
  %69 = load ptr, ptr %68, align 8, !tbaa !40
  store ptr %69, ptr %8, align 8, !tbaa !8
  %70 = load i32, ptr %13, align 4, !tbaa !31
  %71 = add nsw i32 %70, 1
  store i32 %71, ptr %13, align 4, !tbaa !31
  br label %38, !llvm.loop !41

72:                                               ; preds = %38
  %73 = load ptr, ptr %5, align 8, !tbaa !8
  store ptr %73, ptr %9, align 8, !tbaa !8
  %74 = load ptr, ptr %9, align 8, !tbaa !8
  call void @Cudd_Ref(ptr noundef %74)
  br label %75

75:                                               ; preds = %125, %72
  %76 = load ptr, ptr %9, align 8, !tbaa !8
  %77 = load ptr, ptr %4, align 8, !tbaa !3
  %78 = getelementptr inbounds nuw %struct.DdManager, ptr %77, i32 0, i32 2
  %79 = load ptr, ptr %78, align 8, !tbaa !42
  %80 = icmp ne ptr %76, %79
  br i1 %80, label %81, label %139

81:                                               ; preds = %75
  %82 = load ptr, ptr %4, align 8, !tbaa !3
  %83 = load ptr, ptr %9, align 8, !tbaa !8
  %84 = call ptr @Extra_zddSelectOneSubset(ptr noundef %82, ptr noundef %83)
  store ptr %84, ptr %10, align 8, !tbaa !8
  %85 = load ptr, ptr %10, align 8, !tbaa !8
  call void @Cudd_Ref(ptr noundef %85)
  %86 = load ptr, ptr %10, align 8, !tbaa !8
  %87 = getelementptr inbounds nuw %struct.DdNode, ptr %86, i32 0, i32 0
  %88 = load i32, ptr %87, align 8, !tbaa !38
  %89 = and i32 %88, 1
  %90 = icmp ne i32 %89, 0
  br i1 %90, label %91, label %108

91:                                               ; preds = %81
  %92 = load ptr, ptr %7, align 8, !tbaa !10
  %93 = getelementptr inbounds nuw %struct.Extra_UnateInfo_t_, ptr %92, i32 0, i32 3
  %94 = load ptr, ptr %93, align 8, !tbaa !39
  %95 = load ptr, ptr %12, align 8, !tbaa !33
  %96 = load ptr, ptr %10, align 8, !tbaa !8
  %97 = getelementptr inbounds nuw %struct.DdNode, ptr %96, i32 0, i32 0
  %98 = load i32, ptr %97, align 8, !tbaa !38
  %99 = udiv i32 %98, 2
  %100 = zext i32 %99 to i64
  %101 = getelementptr inbounds nuw i32, ptr %95, i64 %100
  %102 = load i32, ptr %101, align 4, !tbaa !31
  %103 = sext i32 %102 to i64
  %104 = getelementptr inbounds %struct.Extra_UnateVar_t_, ptr %94, i64 %103
  %105 = load i32, ptr %104, align 4
  %106 = and i32 %105, 2147483647
  %107 = or i32 %106, -2147483648
  store i32 %107, ptr %104, align 4
  br label %125

108:                                              ; preds = %81
  %109 = load ptr, ptr %7, align 8, !tbaa !10
  %110 = getelementptr inbounds nuw %struct.Extra_UnateInfo_t_, ptr %109, i32 0, i32 3
  %111 = load ptr, ptr %110, align 8, !tbaa !39
  %112 = load ptr, ptr %12, align 8, !tbaa !33
  %113 = load ptr, ptr %10, align 8, !tbaa !8
  %114 = getelementptr inbounds nuw %struct.DdNode, ptr %113, i32 0, i32 0
  %115 = load i32, ptr %114, align 8, !tbaa !38
  %116 = udiv i32 %115, 2
  %117 = zext i32 %116 to i64
  %118 = getelementptr inbounds nuw i32, ptr %112, i64 %117
  %119 = load i32, ptr %118, align 4, !tbaa !31
  %120 = sext i32 %119 to i64
  %121 = getelementptr inbounds %struct.Extra_UnateVar_t_, ptr %111, i64 %120
  %122 = load i32, ptr %121, align 4
  %123 = and i32 %122, -1073741825
  %124 = or i32 %123, 1073741824
  store i32 %124, ptr %121, align 4
  br label %125

125:                                              ; preds = %108, %91
  %126 = load ptr, ptr %7, align 8, !tbaa !10
  %127 = getelementptr inbounds nuw %struct.Extra_UnateInfo_t_, ptr %126, i32 0, i32 2
  %128 = load i32, ptr %127, align 8, !tbaa !43
  %129 = add nsw i32 %128, 1
  store i32 %129, ptr %127, align 8, !tbaa !43
  %130 = load ptr, ptr %4, align 8, !tbaa !3
  %131 = load ptr, ptr %9, align 8, !tbaa !8
  store ptr %131, ptr %11, align 8, !tbaa !8
  %132 = load ptr, ptr %10, align 8, !tbaa !8
  %133 = call ptr @Cudd_zddDiff(ptr noundef %130, ptr noundef %131, ptr noundef %132)
  store ptr %133, ptr %9, align 8, !tbaa !8
  %134 = load ptr, ptr %9, align 8, !tbaa !8
  call void @Cudd_Ref(ptr noundef %134)
  %135 = load ptr, ptr %4, align 8, !tbaa !3
  %136 = load ptr, ptr %11, align 8, !tbaa !8
  call void @Cudd_RecursiveDerefZdd(ptr noundef %135, ptr noundef %136)
  %137 = load ptr, ptr %4, align 8, !tbaa !3
  %138 = load ptr, ptr %10, align 8, !tbaa !8
  call void @Cudd_RecursiveDerefZdd(ptr noundef %137, ptr noundef %138)
  br label %75, !llvm.loop !44

139:                                              ; preds = %75
  %140 = load ptr, ptr %4, align 8, !tbaa !3
  %141 = load ptr, ptr %9, align 8, !tbaa !8
  call void @Cudd_RecursiveDerefZdd(ptr noundef %140, ptr noundef %141)
  %142 = load ptr, ptr %12, align 8, !tbaa !33
  %143 = icmp ne ptr %142, null
  br i1 %143, label %144, label %146

144:                                              ; preds = %139
  %145 = load ptr, ptr %12, align 8, !tbaa !33
  call void @free(ptr noundef %145) #6
  store ptr null, ptr %12, align 8, !tbaa !33
  br label %147

146:                                              ; preds = %139
  br label %147

147:                                              ; preds = %146, %144
  %148 = load ptr, ptr %7, align 8, !tbaa !10
  call void @llvm.lifetime.end.p0(i64 4, ptr %14) #6
  call void @llvm.lifetime.end.p0(i64 4, ptr %13) #6
  call void @llvm.lifetime.end.p0(i64 8, ptr %12) #6
  call void @llvm.lifetime.end.p0(i64 8, ptr %11) #6
  call void @llvm.lifetime.end.p0(i64 8, ptr %10) #6
  call void @llvm.lifetime.end.p0(i64 8, ptr %9) #6
  call void @llvm.lifetime.end.p0(i64 8, ptr %8) #6
  call void @llvm.lifetime.end.p0(i64 8, ptr %7) #6
  ret ptr %148
}