; Function Attrs: nounwind uwtable
define noalias noundef ptr @Extra_UnateInfoCreateFromZdd(ptr noundef %0, ptr noundef %1, ptr noundef %2) local_unnamed_addr #0 {
  %4 = tail call i32 @Extra_bddSuppSize(ptr noundef %0, ptr noundef %2) #9
  %calloc.i = tail call dereferenceable_or_null(24) ptr @calloc(i64 1, i64 24)
  store i32 %4, ptr %calloc.i, align 8, !tbaa !26
  %5 = sext i32 %4 to i64
  %6 = shl nsw i64 %5, 2
  %calloc7.i = tail call ptr @calloc(i64 1, i64 %6)
  %7 = getelementptr inbounds nuw i8, ptr %calloc.i, i64 16
  store ptr %calloc7.i, ptr %7, align 8, !tbaa !29
  %8 = getelementptr inbounds nuw i8, ptr %0, i64 136
  %9 = load i32, ptr %8, align 8, !tbaa !30
  %10 = sext i32 %9 to i64
  %11 = shl nsw i64 %10, 2
  %calloc = tail call ptr @calloc(i64 1, i64 %11)
  %12 = getelementptr inbounds nuw i8, ptr %calloc.i, i64 4
  store i32 %9, ptr %12, align 4, !tbaa !31
  %13 = getelementptr inbounds nuw i8, ptr %0, i64 40
  %14 = load ptr, ptr %13, align 8, !tbaa !32
  %.not52 = icmp eq ptr %2, %14
  br i1 %.not52, label %._crit_edge, label %.lr.ph

.lr.ph:                                           ; preds = %3, %.lr.ph
  %indvars.iv = phi i64 [ %indvars.iv.next, %.lr.ph ], [ 0, %3 ]
  %.054 = phi ptr [ %26, %.lr.ph ], [ %2, %3 ]
  %15 = load i32, ptr %.054, align 8, !tbaa !33
  %16 = getelementptr inbounds nuw %struct.Extra_UnateVar_t_, ptr %calloc7.i, i64 %indvars.iv
  %17 = load i32, ptr %16, align 4
  %18 = and i32 %15, 1073741823
  %19 = and i32 %17, -1073741824
  %20 = or disjoint i32 %19, %18
  store i32 %20, ptr %16, align 4
  %21 = load i32, ptr %.054, align 8, !tbaa !33
  %22 = zext i32 %21 to i64
  %23 = getelementptr inbounds nuw i32, ptr %calloc, i64 %22
  %24 = trunc nuw nsw i64 %indvars.iv to i32
  store i32 %24, ptr %23, align 4, !tbaa !34
  %25 = getelementptr inbounds nuw i8, ptr %.054, i64 16
  %26 = load ptr, ptr %25, align 8, !tbaa !35
  %indvars.iv.next = add nuw nsw i64 %indvars.iv, 1
  %.not = icmp eq ptr %26, %14
  br i1 %.not, label %._crit_edge, label %.lr.ph, !llvm.loop !36

._crit_edge:                                      ; preds = %.lr.ph, %3
  tail call void @Cudd_Ref(ptr noundef %1) #9
  %27 = getelementptr inbounds nuw i8, ptr %0, i64 48
  %28 = load ptr, ptr %27, align 8, !tbaa !37
  %.not4955 = icmp eq ptr %1, %28
  br i1 %.not4955, label %._crit_edge59, label %.lr.ph58

.lr.ph58:                                         ; preds = %._crit_edge
  %29 = getelementptr inbounds nuw i8, ptr %calloc.i, i64 8
  br label %30

30:                                               ; preds = %.lr.ph58, %30
  %31 = phi i32 [ 0, %.lr.ph58 ], [ %43, %30 ]
  %.04756 = phi ptr [ %1, %.lr.ph58 ], [ %44, %30 ]
  %32 = tail call ptr @Extra_zddSelectOneSubset(ptr noundef nonnull %0, ptr noundef %.04756) #9
  tail call void @Cudd_Ref(ptr noundef %32) #9
  %33 = load i32, ptr %32, align 8, !tbaa !33
  %34 = and i32 %33, 1
  %.not51 = icmp eq i32 %34, 0
  %35 = lshr i32 %33, 1
  %36 = zext nneg i32 %35 to i64
  %37 = getelementptr inbounds nuw i32, ptr %calloc, i64 %36
  %38 = load i32, ptr %37, align 4, !tbaa !34
  %39 = sext i32 %38 to i64
  %40 = getelementptr inbounds %struct.Extra_UnateVar_t_, ptr %calloc7.i, i64 %39
  %41 = load i32, ptr %40, align 4
  %. = select i1 %.not51, i32 1073741824, i32 -2147483648
  %42 = or i32 %41, %.
  store i32 %42, ptr %40, align 4
  %43 = add nuw nsw i32 %31, 1
  store i32 %43, ptr %29, align 8, !tbaa !38
  %44 = tail call ptr @Cudd_zddDiff(ptr noundef nonnull %0, ptr noundef %.04756, ptr noundef nonnull %32) #9
  tail call void @Cudd_Ref(ptr noundef %44) #9
  tail call void @Cudd_RecursiveDerefZdd(ptr noundef nonnull %0, ptr noundef %.04756) #9
  tail call void @Cudd_RecursiveDerefZdd(ptr noundef nonnull %0, ptr noundef nonnull %32) #9
  %45 = load ptr, ptr %27, align 8, !tbaa !37
  %.not49 = icmp eq ptr %44, %45
  br i1 %.not49, label %._crit_edge59.thread, label %30, !llvm.loop !39

._crit_edge59.thread:                             ; preds = %30
  tail call void @Cudd_RecursiveDerefZdd(ptr noundef nonnull %0, ptr noundef %44) #9
  br label %46

._crit_edge59:                                    ; preds = %._crit_edge
  tail call void @Cudd_RecursiveDerefZdd(ptr noundef nonnull %0, ptr noundef %1) #9
  %.not50 = icmp eq ptr %calloc, null
  br i1 %.not50, label %47, label %46

46:                                               ; preds = %._crit_edge59.thread, %._crit_edge59
  tail call void @free(ptr noundef nonnull %calloc) #9
  br label %47

47:                                               ; preds = %._crit_edge59, %46
  ret ptr %calloc.i
}